target datalayout = "e-m:e-p270:32:32-p271:32:32-p272:64:64-i64:64-i128:128-f80:128-n8:16:32:64-S128"
target triple = "x86_64-unknown-linux-gnu"

%"class.std::__shared_count" = type { ptr }
%"class.std::shared_ptr.29" = type { %"class.std::__shared_ptr.30" }
%"class.std::__shared_ptr.30" = type { ptr, %"class.std::__shared_count" }
%"class.std::shared_ptr.54" = type { %"class.std::__shared_ptr.55" }
%"class.std::__shared_ptr.55" = type { ptr, %"class.std::__shared_count" }

; Function Attrs: mustprogress uwtable
define internal void @_ZNK19OpenColorIO_v2_4dev12_GLOBAL__N_113GradingToneOp8getCPUOpEb(ptr noalias sret(%"class.std::shared_ptr.54") align 8 %agg.result, ptr noundef nonnull align 8 dereferenceable(24) %this, i1 noundef zeroext %0) unnamed_addr #0 align 2 personality ptr @__gxx_personality_v0 {
entry:
  %result.ptr = alloca ptr, align 8
  %this.addr = alloca ptr, align 8
  %.addr = alloca i8, align 1
  %data = alloca %"class.std::shared_ptr.29", align 8
  %exn.slot = alloca ptr, align 8
  %ehselector.slot = alloca i32, align 4
  store ptr %agg.result, ptr %result.ptr, align 8
  store ptr %this, ptr %this.addr, align 8
  %frombool = zext i1 %0 to i8
  store i8 %frombool, ptr %.addr, align 1
  %this1 = load ptr, ptr %this.addr, align 8
  call void @_ZNK19OpenColorIO_v2_4dev12_GLOBAL__N_113GradingToneOp8toneDataEv(ptr sret(%"class.std::shared_ptr.29") align 8 %data, ptr noundef nonnull align 8 dereferenceable(24) %this1)
  invoke void @_ZN19OpenColorIO_v2_4dev25GetGradingToneCPURendererERSt10shared_ptrIKNS_17GradingToneOpDataEE(ptr sret(%"class.std::shared_ptr.54") align 8 %agg.result, ptr noundef nonnull align 8 dereferenceable(16) %data)
          to label %invoke.cont unwind label %lpad

invoke.cont:                                      ; preds = %entry
  call void @_ZNSt10shared_ptrIKN19OpenColorIO_v2_4dev17GradingToneOpDataEED2Ev(ptr noundef nonnull align 8 dereferenceable(16) %data) #12
  ret void

lpad:                                             ; preds = %entry
  %1 = landingpad { ptr, i32 }
          cleanup
  %2 = extractvalue { ptr, i32 } %1, 0
  store ptr %2, ptr %exn.slot, align 8
  %3 = extractvalue { ptr, i32 } %1, 1
  store i32 %3, ptr %ehselector.slot, align 4
  call void @_ZNSt10shared_ptrIKN19OpenColorIO_v2_4dev17GradingToneOpDataEED2Ev(ptr noundef nonnull align 8 dereferenceable(16) %data) #12
  br label %eh.resume

eh.resume:                                        ; preds = %lpad
  %exn = load ptr, ptr %exn.slot, align 8
  %sel = load i32, ptr %ehselector.slot, align 4
  %lpad.val = insertvalue { ptr, i32 } poison, ptr %exn, 0
  %lpad.val2 = insertvalue { ptr, i32 } %lpad.val, i32 %sel, 1
  resume { ptr, i32 } %lpad.val2
}